; Function Attrs: mustprogress nofree norecurse nosync nounwind willreturn memory(read, inaccessiblemem: none) uwtable
define internal noundef i32 @_ZNK3ue212_GLOBAL__N_120raw_report_info_impl17getReportListSizeEv(ptr nocapture noundef nonnull readonly align 8 dereferenceable(32) %this) unnamed_addr #14 align 2 {
entry:
  %rl = getelementptr inbounds i8, ptr %this, i64 8
  %rl.val = load ptr, ptr %rl, align 8
  %0 = getelementptr inbounds i8, ptr %this, i64 16
  %rl.val4 = load ptr, ptr %0, align 8
  %cmp.i.not6 = icmp eq ptr %rl.val, %rl.val4
  br i1 %cmp.i.not6, label %for.end, label %for.body

for.body:                                         ; preds = %entry, %for.body
  %rv.08 = phi i32 [ %conv10, %for.body ], [ 0, %entry ]
  %__begin1.sroa.0.07 = phi ptr [ %incdec.ptr.i, %for.body ], [ %rl.val, %entry ]
  %add = add i32 %rv.08, 4
  %m_size.i.i = getelementptr inbounds i8, ptr %__begin1.sroa.0.07, i64 8
  %1 = load i64, ptr %m_size.i.i, align 8
  %call7.tr = trunc i64 %1 to i32
  %2 = shl i32 %call7.tr, 2
  %conv10 = add i32 %add, %2
  %incdec.ptr.i = getelementptr inbounds i8, ptr %__begin1.sroa.0.07, i64 32
  %cmp.i.not = icmp eq ptr %incdec.ptr.i, %rl.val4
  br i1 %cmp.i.not, label %for.end, label %for.body

for.end:                                          ; preds = %for.body, %entry
  %rv.0.lcssa = phi i32 [ 0, %entry ], [ %conv10, %for.body ]
  ret i32 %rv.0.lcssa
}